(lp0
(lp1
(dp2
S'biome'
p3
(I8
I7
tp4
sS'small_game'
p5
I80000
sS'max_small_game'
p6
I80000
sS'max_vegetation'
p7
I80000
sS'ecoregion'
p8
S'Levant'
p9
sS'vegetation'
p10
I80000
sa(dp11
g3
(I8
I6
tp12
sg5
I65000
sg6
I65000
sg7
I65000
sg8
g9
sg10
I65000
sa(dp13
g3
(I8
I4
tp14
sg5
I20000
sg6
I20000
sg7
I20000
sg8
g9
sg10
I20000
sa(dp15
g3
(I8
I1
tp16
sg5
I1000
sg6
I1000
sg7
I1000
sg8
g9
sg10
I1000
saa(lp17
(dp18
g3
(I8
I7
tp19
sg5
I80000
sg6
I80000
sg7
I80000
sg8
g9
sg10
I80000
sa(dp20
g3
(I8
I6
tp21
sg5
I65000
sg6
I65000
sg7
I65000
sg8
g9
sg10
I65000
sa(dp22
g3
(I8
I4
tp23
sg5
I20000
sg6
I20000
sg7
I20000
sg8
g9
sg10
I20000
sa(dp24
g3
(I8
I1
tp25
sg5
I1000
sg6
I1000
sg7
I1000
sg8
g9
sg10
I1000
saa(lp26
(dp27
g3
(I8
I5
tp28
sg5
I35000
sg6
I35000
sg7
I35000
sg8
g9
sg10
I35000
sa(dp29
g3
(I8
I4
tp30
sg5
I20000
sg6
I20000
sg7
I20000
sg8
g9
sg10
I20000
sa(dp31
g3
(I8
I3
tp32
sg5
I10000
sg6
I10000
sg7
I10000
sg8
g9
sg10
I10000
sa(dp33
g3
(I8
I0
tp34
sg5
I0
sg6
I0
sg7
I0
sg8
g9
sg10
I0
saa(lp35
(dp36
g3
(I8
I2
tp37
sg5
I4000
sg6
I4000
sg7
I4000
sg8
g9
sg10
I4000
sa(dp38
g3
(I8
I1
tp39
sg5
I1000
sg6
I1000
sg7
I1000
sg8
g9
sg10
I1000
sa(dp40
g3
(I8
I0
tp41
sg5
I0
sg6
I0
sg7
I0
sg8
g9
sg10
I0
sa(dp42
g3
(I8
I0
tp43
sg5
I0
sg6
I0
sg7
I0
sg8
g9
sg10
I0
saa.